

Microchip Technology PIC18 LITE Macro Assembler V1.35 build -356382666 
                                                                                               Mon Sep 12 17:24:01 2016

Microchip Technology Omniscient Code Generator v1.35 (Free mode) build 201507080246
     1                           	processor	18F4520
     2                           	fnconf	rparam,??,?,0
     3                           	opt	pw 120
     4                           	opt	lm
     5                           	psect	cinit,global,reloc=2,class=CODE,delta=1
     6                           	psect	bssCOMRAM,global,class=COMRAM,space=1,delta=1
     7                           	psect	cstackCOMRAM,global,class=COMRAM,space=1,delta=1
     8                           	psect	text0,global,reloc=2,class=CODE,delta=1
     9                           	psect	text1,global,reloc=2,class=CODE,delta=1
    10                           	psect	text2,global,reloc=2,class=CODE,delta=1
    11                           	psect	text3,global,reloc=2,class=CODE,delta=1
    12                           	psect	text4,global,reloc=2,class=CODE,delta=1
    13                           	psect	intsave_regs,global,class=BIGRAM,space=1,delta=1
    14                           	psect	rparam,global,class=COMRAM,space=1,delta=1
    15  0000                     _ADCON1	set	4033
    16  0000                     _PORTA	set	3968
    17  0000                     _PORTB	set	3969
    18  0000                     _TRISA	set	3986
    19  0000                     _TRISB	set	3987
    20                           
    21                           ; #config settings
    22  0000                     
    23                           	psect	cinit
    24  007F3A                     __pcinit:
    25                           	opt stack 0
    26  007F3A                     start_initialization:
    27                           	opt stack 0
    28  007F3A                     __initialization:
    29                           	opt stack 0
    30                           
    31                           ; Clear objects allocated to COMRAM (1 bytes)
    32  007F3A  6A08               	clrf	__pbssCOMRAM& (0+255),c
    33  007F3C                     end_of_initialization:
    34                           	opt stack 0
    35  007F3C                     __end_of__initialization:
    36                           	opt stack 0
    37  007F3C  0100               	movlb	0
    38  007F3E  EFB3  F03F         	goto	_main	;jump to C main() function
    39                           
    40                           	psect	bssCOMRAM
    41  000008                     __pbssCOMRAM:
    42                           	opt stack 0
    43  000008                     _car_count:
    44                           	opt stack 0
    45  000008                     	ds	1
    46                           
    47                           	psect	cstackCOMRAM
    48  000001                     __pcstackCOMRAM:
    49                           	opt stack 0
    50  000001                     ??_key:
    51  000001                     
    52                           ; 0 bytes @ 0x0
    53  000001                     	ds	2
    54  000003                     key@bitnum:
    55                           	opt stack 0
    56                           
    57                           ; 1 bytes @ 0x2
    58  000003                     	ds	1
    59  000004                     key@count:
    60                           	opt stack 0
    61                           
    62                           ; 1 bytes @ 0x3
    63  000004                     	ds	1
    64  000005                     key@newv:
    65                           	opt stack 0
    66                           
    67                           ; 1 bytes @ 0x4
    68  000005                     	ds	1
    69  000006                     key@mask_val:
    70                           	opt stack 0
    71                           
    72                           ; 1 bytes @ 0x5
    73  000006                     	ds	1
    74  000007                     key@oldv:
    75                           	opt stack 0
    76                           
    77                           ; 1 bytes @ 0x6
    78  000007                     	ds	1
    79  000008                     
    80                           ; 0 bytes @ 0x7
    81 ;;
    82 ;;Main: autosize = 0, tempsize = 0, incstack = 0, save=0
    83 ;;
    84 ;; *************** function _main *****************
    85 ;; Defined at:
    86 ;;		line 74 in file "car6.c"
    87 ;; Parameters:    Size  Location     Type
    88 ;;		None
    89 ;; Auto vars:     Size  Location     Type
    90 ;;		None
    91 ;; Return value:  Size  Location     Type
    92 ;;		None               void
    93 ;; Registers used:
    94 ;;		wreg, status,2, status,0, cstack
    95 ;; Tracked objects:
    96 ;;		On entry : 0/0
    97 ;;		On exit  : 0/0
    98 ;;		Unchanged: 0/0
    99 ;; Data sizes:     COMRAM   BANK0   BANK1   BANK2   BANK3   BANK4   BANK5
   100 ;;      Params:         0       0       0       0       0       0       0
   101 ;;      Locals:         0       0       0       0       0       0       0
   102 ;;      Temps:          0       0       0       0       0       0       0
   103 ;;      Totals:         0       0       0       0       0       0       0
   104 ;;Total ram usage:        0 bytes
   105 ;; Hardware stack levels required when called:    1
   106 ;; This function calls:
   107 ;;		_Initial
   108 ;;		_decrease_cars
   109 ;;		_increase_cars
   110 ;;		_key
   111 ;; This function is called by:
   112 ;;		Startup code after reset
   113 ;; This function uses a non-reentrant model
   114 ;;
   115                           
   116                           	psect	text0
   117  007F66                     __ptext0:
   118                           	opt stack 0
   119  007F66                     _main:
   120                           	opt stack 30
   121                           
   122                           ;car6.c: 77: Initial();
   123                           
   124                           ;incstack = 0
   125  007F66  ECAB  F03F         	call	_Initial	;wreg free
   126  007F6A                     l718:
   127  007F6A  0E00               	movlw	0
   128  007F6C  ECD6  F03F         	call	_key
   129  007F70  B0D8               	btfsc	status,0,c
   130  007F72  D005               	goto	l722
   131  007F74  0E01               	movlw	1
   132  007F76  ECD6  F03F         	call	_key
   133  007F7A  A0D8               	btfss	status,0,c
   134  007F7C  D7F6               	goto	l718
   135  007F7E                     l722:
   136                           
   137                           ;car6.c: 85: if (key(0))
   138  007F7E  0E00               	movlw	0
   139  007F80  ECD6  F03F         	call	_key
   140  007F84  A0D8               	btfss	status,0,c
   141  007F86  D003               	goto	l726
   142                           
   143                           ;car6.c: 86: increase_cars();
   144  007F88  ECA6  F03F         	call	_increase_cars	;wreg free
   145  007F8C  D002               	goto	l728
   146  007F8E                     l726:
   147                           
   148                           ;car6.c: 87: else
   149                           ;car6.c: 88: decrease_cars();
   150  007F8E  ECA1  F03F         	call	_decrease_cars	;wreg free
   151  007F92                     l728:
   152                           
   153                           ;car6.c: 90: PORTB = car_count;
   154  007F92  C008  FF81         	movff	_car_count,3969	;volatile
   155  007F96                     l730:
   156  007F96  0E00               	movlw	0
   157  007F98  ECD6  F03F         	call	_key
   158  007F9C  B0D8               	btfsc	status,0,c
   159  007F9E  D7FB               	goto	l730
   160  007FA0  0E01               	movlw	1
   161  007FA2  ECD6  F03F         	call	_key
   162  007FA6  A0D8               	btfss	status,0,c
   163  007FA8  D7E0               	goto	l718
   164  007FAA  D7F5               	goto	l730
   165  007FAC                     __end_of_main:
   166                           	opt stack 0
   167                           status	equ	0xFD8
   168                           
   169 ;; *************** function _key *****************
   170 ;; Defined at:
   171 ;;		line 128 in file "car6.c"
   172 ;; Parameters:    Size  Location     Type
   173 ;;  bitnum          1    wreg     unsigned char 
   174 ;; Auto vars:     Size  Location     Type
   175 ;;  bitnum          1    2[COMRAM] unsigned char 
   176 ;;  oldv            1    6[COMRAM] unsigned char 
   177 ;;  mask_val        1    5[COMRAM] unsigned char 
   178 ;;  newv            1    4[COMRAM] unsigned char 
   179 ;;  count           1    3[COMRAM] unsigned char 
   180 ;; Return value:  Size  Location     Type
   181 ;;		None               void
   182 ;; Registers used:
   183 ;;		wreg, status,2, status,0
   184 ;; Tracked objects:
   185 ;;		On entry : 0/0
   186 ;;		On exit  : 0/0
   187 ;;		Unchanged: 0/0
   188 ;; Data sizes:     COMRAM   BANK0   BANK1   BANK2   BANK3   BANK4   BANK5
   189 ;;      Params:         0       0       0       0       0       0       0
   190 ;;      Locals:         5       0       0       0       0       0       0
   191 ;;      Temps:          2       0       0       0       0       0       0
   192 ;;      Totals:         7       0       0       0       0       0       0
   193 ;;Total ram usage:        7 bytes
   194 ;; Hardware stack levels used:    1
   195 ;; This function calls:
   196 ;;		Nothing
   197 ;; This function is called by:
   198 ;;		_main
   199 ;; This function uses a non-reentrant model
   200 ;;
   201                           
   202                           	psect	text1
   203  007FAC                     __ptext1:
   204                           	opt stack 0
   205  007FAC                     _key:
   206                           	opt stack 30
   207                           
   208                           ;incstack = 0
   209                           ;key@bitnum stored from wreg
   210  007FAC  6E03               	movwf	key@bitnum,c
   211                           
   212                           ;car6.c: 131: unsigned char count = 0 ;
   213  007FAE  0E00               	movlw	0
   214  007FB0  6E04               	movwf	key@count,c
   215                           
   216                           ;car6.c: 132: unsigned char oldv, newv ;
   217                           ;car6.c: 133: unsigned char mask_val;
   218                           ;car6.c: 135: mask_val = 0x01 << bitnum;
   219  007FB2  C003  F001         	movff	key@bitnum,??_key
   220  007FB6  0E01               	movlw	1
   221  007FB8  6E02               	movwf	(??_key+1)& (0+255),c
   222  007FBA  2A01               	incf	??_key,f,c
   223  007FBC  D002               	goto	u24
   224  007FBE                     u25:
   225  007FBE  90D8               	bcf	status,0,c
   226  007FC0  3602               	rlcf	??_key+1,f,c
   227  007FC2                     u24:
   228  007FC2  2E01               	decfsz	??_key,f,c
   229  007FC4  D7FC               	goto	u25
   230  007FC6  5002               	movf	??_key+1,w,c
   231  007FC8  6E06               	movwf	key@mask_val,c
   232                           
   233                           ;car6.c: 137: oldv = PORTA & mask_val ;
   234  007FCA  5080               	movf	3968,w,c	;volatile
   235  007FCC  1406               	andwf	key@mask_val,w,c
   236  007FCE  6E07               	movwf	key@oldv,c
   237                           
   238                           ;car6.c: 138: while ( count < 2 ) {
   239  007FD0  D00D               	goto	l698
   240  007FD2                     l690:
   241                           
   242                           ;car6.c: 139: newv = PORTA & mask_val ;
   243  007FD2  5080               	movf	3968,w,c	;volatile
   244  007FD4  1406               	andwf	key@mask_val,w,c
   245  007FD6  6E05               	movwf	key@newv,c
   246                           
   247                           ;car6.c: 140: if ( oldv == newv ) {
   248  007FD8  5005               	movf	key@newv,w,c
   249  007FDA  1807               	xorwf	key@oldv,w,c
   250  007FDC  A4D8               	btfss	status,2,c
   251  007FDE  D002               	goto	l694
   252                           
   253                           ;car6.c: 141: count++ ;
   254  007FE0  2A04               	incf	key@count,f,c
   255                           
   256                           ;car6.c: 142: }
   257  007FE2  D004               	goto	l698
   258  007FE4                     l694:
   259                           
   260                           ;car6.c: 143: else {
   261                           ;car6.c: 144: count = 0 ;
   262  007FE4  0E00               	movlw	0
   263  007FE6  6E04               	movwf	key@count,c
   264                           
   265                           ;car6.c: 145: oldv = newv ;
   266  007FE8  C005  F007         	movff	key@newv,key@oldv
   267  007FEC                     l698:
   268  007FEC  0E01               	movlw	1
   269  007FEE  6404               	cpfsgt	key@count,c
   270  007FF0  D7F0               	goto	l690
   271                           
   272                           ;car6.c: 146: }
   273                           ;car6.c: 147: }
   274                           ;car6.c: 149: if (oldv)
   275  007FF2  5007               	movf	key@oldv,w,c
   276  007FF4  B4D8               	btfsc	status,2,c
   277  007FF6  D002               	goto	l708
   278                           
   279                           ;car6.c: 150: return 1;
   280  007FF8  80D8               	bsf	status,0,c
   281  007FFA  0012               	return	
   282  007FFC                     l708:
   283                           
   284                           ;car6.c: 151: else
   285                           ;car6.c: 152: return 0;
   286  007FFC  90D8               	bcf	status,0,c
   287  007FFE  0012               	return	
   288  008000                     __end_of_key:
   289                           	opt stack 0
   290                           status	equ	0xFD8
   291                           
   292 ;; *************** function _increase_cars *****************
   293 ;; Defined at:
   294 ;;		line 64 in file "car6.c"
   295 ;; Parameters:    Size  Location     Type
   296 ;;		None
   297 ;; Auto vars:     Size  Location     Type
   298 ;;		None
   299 ;; Return value:  Size  Location     Type
   300 ;;		None               void
   301 ;; Registers used:
   302 ;;		wreg, status,2, status,0
   303 ;; Tracked objects:
   304 ;;		On entry : 0/0
   305 ;;		On exit  : 0/0
   306 ;;		Unchanged: 0/0
   307 ;; Data sizes:     COMRAM   BANK0   BANK1   BANK2   BANK3   BANK4   BANK5
   308 ;;      Params:         0       0       0       0       0       0       0
   309 ;;      Locals:         0       0       0       0       0       0       0
   310 ;;      Temps:          0       0       0       0       0       0       0
   311 ;;      Totals:         0       0       0       0       0       0       0
   312 ;;Total ram usage:        0 bytes
   313 ;; Hardware stack levels used:    1
   314 ;; This function calls:
   315 ;;		Nothing
   316 ;; This function is called by:
   317 ;;		_main
   318 ;; This function uses a non-reentrant model
   319 ;;
   320                           
   321                           	psect	text2
   322  007F4C                     __ptext2:
   323                           	opt stack 0
   324  007F4C                     _increase_cars:
   325                           	opt stack 30
   326                           
   327                           ;car6.c: 66: if (car_count < 20)
   328                           
   329                           ;incstack = 0
   330  007F4C  0E14               	movlw	20
   331  007F4E  6008               	cpfslt	_car_count,c
   332  007F50  0012               	return	
   333                           
   334                           ;car6.c: 67: car_count ++;
   335  007F52  2A08               	incf	_car_count,f,c
   336  007F54  0012               	return	
   337  007F56                     __end_of_increase_cars:
   338                           	opt stack 0
   339                           status	equ	0xFD8
   340                           
   341 ;; *************** function _decrease_cars *****************
   342 ;; Defined at:
   343 ;;		line 163 in file "car6.c"
   344 ;; Parameters:    Size  Location     Type
   345 ;;		None
   346 ;; Auto vars:     Size  Location     Type
   347 ;;		None
   348 ;; Return value:  Size  Location     Type
   349 ;;		None               void
   350 ;; Registers used:
   351 ;;		wreg, status,2, status,0
   352 ;; Tracked objects:
   353 ;;		On entry : 0/0
   354 ;;		On exit  : 0/0
   355 ;;		Unchanged: 0/0
   356 ;; Data sizes:     COMRAM   BANK0   BANK1   BANK2   BANK3   BANK4   BANK5
   357 ;;      Params:         0       0       0       0       0       0       0
   358 ;;      Locals:         0       0       0       0       0       0       0
   359 ;;      Temps:          0       0       0       0       0       0       0
   360 ;;      Totals:         0       0       0       0       0       0       0
   361 ;;Total ram usage:        0 bytes
   362 ;; Hardware stack levels used:    1
   363 ;; This function calls:
   364 ;;		Nothing
   365 ;; This function is called by:
   366 ;;		_main
   367 ;; This function uses a non-reentrant model
   368 ;;
   369                           
   370                           	psect	text3
   371  007F42                     __ptext3:
   372                           	opt stack 0
   373  007F42                     _decrease_cars:
   374                           	opt stack 30
   375                           
   376                           ;car6.c: 165: if (car_count > 0)
   377                           
   378                           ;incstack = 0
   379  007F42  5008               	movf	_car_count,w,c
   380  007F44  B4D8               	btfsc	status,2,c
   381  007F46  0012               	return	
   382                           
   383                           ;car6.c: 166: car_count --;
   384  007F48  0608               	decf	_car_count,f,c
   385  007F4A  0012               	return	
   386  007F4C                     __end_of_decrease_cars:
   387                           	opt stack 0
   388                           status	equ	0xFD8
   389                           
   390 ;; *************** function _Initial *****************
   391 ;; Defined at:
   392 ;;		line 105 in file "car6.c"
   393 ;; Parameters:    Size  Location     Type
   394 ;;		None
   395 ;; Auto vars:     Size  Location     Type
   396 ;;		None
   397 ;; Return value:  Size  Location     Type
   398 ;;		None               void
   399 ;; Registers used:
   400 ;;		wreg, status,2
   401 ;; Tracked objects:
   402 ;;		On entry : 0/0
   403 ;;		On exit  : 0/0
   404 ;;		Unchanged: 0/0
   405 ;; Data sizes:     COMRAM   BANK0   BANK1   BANK2   BANK3   BANK4   BANK5
   406 ;;      Params:         0       0       0       0       0       0       0
   407 ;;      Locals:         0       0       0       0       0       0       0
   408 ;;      Temps:          0       0       0       0       0       0       0
   409 ;;      Totals:         0       0       0       0       0       0       0
   410 ;;Total ram usage:        0 bytes
   411 ;; Hardware stack levels used:    1
   412 ;; This function calls:
   413 ;;		Nothing
   414 ;; This function is called by:
   415 ;;		_main
   416 ;; This function uses a non-reentrant model
   417 ;;
   418                           
   419                           	psect	text4
   420  007F56                     __ptext4:
   421                           	opt stack 0
   422  007F56                     _Initial:
   423                           	opt stack 30
   424                           
   425                           ;car6.c: 108: ADCON1 = 0x0f;
   426                           
   427                           ;incstack = 0
   428  007F56  0E0F               	movlw	15
   429  007F58  6EC1               	movwf	4033,c	;volatile
   430                           
   431                           ;car6.c: 110: TRISA = 0xff;
   432  007F5A  6892               	setf	3986,c	;volatile
   433                           
   434                           ;car6.c: 111: TRISB = 0x00;
   435  007F5C  0E00               	movlw	0
   436  007F5E  6E93               	movwf	3987,c	;volatile
   437                           
   438                           ;car6.c: 112: PORTB = 0x00;
   439  007F60  0E00               	movlw	0
   440  007F62  6E81               	movwf	3969,c	;volatile
   441  007F64  0012               	return		;funcret
   442  007F66                     __end_of_Initial:
   443                           	opt stack 0
   444  0000                     status	equ	0xFD8
   445                           status	equ	0xFD8
   446                           
   447                           	psect	rparam
   448  0000                     status	equ	0xFD8


Data Sizes:
    Strings     0
    Constant    0
    Data        0
    BSS         1
    Persistent  0
    Stack       0

Auto Spaces:
    Space          Size  Autos    Used
    COMRAM          127      7       8
    BANK0           128      0       0
    BANK1           256      0       0
    BANK2           256      0       0
    BANK3           256      0       0
    BANK4           256      0       0
    BANK5           256      0       0

Pointer List with Targets:

    None.

Critical Paths under _main in COMRAM

    _main->_key

Critical Paths under _main in BANK0

    None.

Critical Paths under _main in BANK1

    None.

Critical Paths under _main in BANK2

    None.

Critical Paths under _main in BANK3

    None.

Critical Paths under _main in BANK4

    None.

Critical Paths under _main in BANK5

    None.

Call Graph Tables:

 ---------------------------------------------------------------------------------
 (Depth) Function   	        Calls       Base Space   Used Autos Params    Refs
 ---------------------------------------------------------------------------------
 (0) _main                                                 0     0      0     120
                            _Initial
                      _decrease_cars
                      _increase_cars
                                _key
 ---------------------------------------------------------------------------------
 (1) _key                                                  7     7      0     120
                                              0 COMRAM     7     7      0
 ---------------------------------------------------------------------------------
 (1) _increase_cars                                        0     0      0       0
 ---------------------------------------------------------------------------------
 (1) _decrease_cars                                        0     0      0       0
 ---------------------------------------------------------------------------------
 (1) _Initial                                              0     0      0       0
 ---------------------------------------------------------------------------------
 Estimated maximum stack depth 1
 ---------------------------------------------------------------------------------

 Call Graph Graphs:

 _main (ROOT)
   _Initial
   _decrease_cars
   _increase_cars
   _key

 Address spaces:
Name               Size   Autos  Total    Cost      Usage
BIGRAM             5FF      0       0      17        0.0%
EEDATA             100      0       0       0        0.0%
BITBANK5           100      0       0      16        0.0%
BANK5              100      0       0      14        0.0%
BITBANK4           100      0       0      12        0.0%
BANK4              100      0       0      13        0.0%
BITBANK3           100      0       0      10        0.0%
BANK3              100      0       0      11        0.0%
BITBANK2           100      0       0       8        0.0%
BANK2              100      0       0       9        0.0%
BITBANK1           100      0       0       6        0.0%
BANK1              100      0       0       7        0.0%
BITBANK0            80      0       0       4        0.0%
BANK0               80      0       0       5        0.0%
BITCOMRAM           7F      0       0       0        0.0%
COMRAM              7F      7       8       1        6.3%
BITSFR               0      0       0      40        0.0%
SFR                  0      0       0      40        0.0%
STACK                0      0       0       2        0.0%
NULL                 0      0       0       0        0.0%
ABS                  0      0       8      15        0.0%
DATA                 0      0       8       3        0.0%
CODE                 0      0       0       0        0.0%


Microchip Technology PIC18 Macro Assembler V1.35 build -356382666 
Symbol Table                                                                                   Mon Sep 12 17:24:01 2016

                     u24 7FC2                       u25 7FBE              __CFG_BORV$3 000000  
           __CFG_CP0$OFF 000000             __CFG_CP1$OFF 000000             __CFG_CP2$OFF 000000  
           __CFG_CP3$OFF 000000              __CFG_OSC$HS 000000                      l730 7F96  
                    l722 7F7E                      l708 7FFC                      l726 7F8E  
                    l718 7F6A                      l728 7F92                      l690 7FD2  
                    l694 7FE4                      l698 7FEC             __CFG_CPB$OFF 000000  
           __CFG_CPD$OFF 000000                      _key 7FAC             __CFG_LVP$OFF 000000  
           __CFG_WDT$OFF 000000                     ?_key 0001                     _main 7F66  
                   start 0000            __CFG_IESO$OFF 000000            __CFG_MCLRE$ON 000000  
           ___param_bank 000010          __end_of_Initial 7F66              key@mask_val 0006  
                  ??_key 0001    __end_of_decrease_cars 7F4C                    ?_main 0001  
                  _PORTA 000F80                    _PORTB 000F81                    _TRISA 000F92  
                  _TRISB 000F93            __CFG_PWRT$OFF 000000            __CFG_WRT0$OFF 000000  
          __CFG_WRT1$OFF 000000            __CFG_WRT2$OFF 000000            __CFG_WRT3$OFF 000000  
         __CFG_EBTR0$OFF 000000           __CFG_FCMEN$OFF 000000           __CFG_EBTR1$OFF 000000  
         __CFG_EBTR2$OFF 000000           __CFG_EBTR3$OFF 000000   __size_of_increase_cars 000A  
          __CFG_WRTB$OFF 000000            __CFG_WRTC$OFF 000000            __CFG_WRTD$OFF 000000  
         __CFG_EBTRB$OFF 000000           __CFG_BOREN$OFF 000000                    status 000FD8  
        __initialization 7F3A             __end_of_main 7FAC                   ??_main 0008  
          __activetblptr 000000                   _ADCON1 000FC1                ??_Initial 0001  
         __CFG_XINST$OFF 000000            _increase_cars 7F4C           __CFG_STVREN$ON 000000  
             __accesstop 0080  __end_of__initialization 7F3C          __CFG_PBADEN$OFF 000000  
          ___rparam_used 000001           ?_increase_cars 0001           __pcstackCOMRAM 0001  
        ??_increase_cars 0001                  _Initial 7F56                  __Hparam 0000  
                __Lparam 0000                  __pcinit 7F3A                  __ramtop 0600  
                __ptext0 7F66                  __ptext1 7FAC                  __ptext2 7F4C  
                __ptext3 7F42                  __ptext4 7F56             __size_of_key 0054  
                key@oldv 0007                  key@newv 0005     end_of_initialization 7F3C  
 __size_of_decrease_cars 000A            _decrease_cars 7F42      start_initialization 7F3A  
            __end_of_key 8000         __CFG_LPT1OSC$OFF 000000           ?_decrease_cars 0001  
            __pbssCOMRAM 0008                _car_count 0008                 ?_Initial 0001  
      __CFG_CCP2MX$PORTC 000000    __end_of_increase_cars 7F56         __CFG_WDTPS$32768 000000  
        ??_decrease_cars 0001                key@bitnum 0003                 __Hrparam 0000  
       __size_of_Initial 0010                 __Lrparam 0000            __size_of_main 0046  
               key@count 0004  
